target datalayout = "e-m:e-p270:32:32-p271:32:32-p272:64:64-i64:64-i128:128-f80:128-n8:16:32:64-S128"
target triple = "x86_64-pc-linux-gnu"

@.str.9 = private unnamed_addr constant [8 x i8] c"unknown\00", align 1
@.str.20 = private unnamed_addr constant [5 x i8] c"left\00", align 1
@.str.21 = private unnamed_addr constant [4 x i8] c"top\00", align 1
@.str.22 = private unnamed_addr constant [6 x i8] c"right\00", align 1
@.str.23 = private unnamed_addr constant [7 x i8] c"bottom\00", align 1
@.str.24 = private unnamed_addr constant [6 x i8] c"start\00", align 1
@.str.25 = private unnamed_addr constant [4 x i8] c"end\00", align 1
@.str.26 = private unnamed_addr constant [11 x i8] c"horizontal\00", align 1
@.str.27 = private unnamed_addr constant [9 x i8] c"vertical\00", align 1
@.str.28 = private unnamed_addr constant [4 x i8] c"all\00", align 1

; Function Attrs: mustprogress nounwind uwtable
define ptr @YGEdgeToString(i32 noundef %0) #0 {
  %2 = alloca ptr, align 8
  %3 = alloca i32, align 4
  store i32 %0, ptr %3, align 4, !tbaa !16
  %4 = load i32, ptr %3, align 4, !tbaa !16
  switch i32 %4, label %14 [
    i32 0, label %5
    i32 1, label %6
    i32 2, label %7
    i32 3, label %8
    i32 4, label %9
    i32 5, label %10
    i32 6, label %11
    i32 7, label %12
    i32 8, label %13
  ]

5:                                                ; preds = %1
  store ptr @.str.20, ptr %2, align 8
  br label %15

6:                                                ; preds = %1
  store ptr @.str.21, ptr %2, align 8
  br label %15

7:                                                ; preds = %1
  store ptr @.str.22, ptr %2, align 8
  br label %15

8:                                                ; preds = %1
  store ptr @.str.23, ptr %2, align 8
  br label %15

9:                                                ; preds = %1
  store ptr @.str.24, ptr %2, align 8
  br label %15

10:                                               ; preds = %1
  store ptr @.str.25, ptr %2, align 8
  br label %15

11:                                               ; preds = %1
  store ptr @.str.26, ptr %2, align 8
  br label %15

12:                                               ; preds = %1
  store ptr @.str.27, ptr %2, align 8
  br label %15

13:                                               ; preds = %1
  store ptr @.str.28, ptr %2, align 8
  br label %15

14:                                               ; preds = %1
  store ptr @.str.9, ptr %2, align 8
  br label %15

15:                                               ; preds = %14, %13, %12, %11, %10, %9, %8, %7, %6, %5
  %16 = load ptr, ptr %2, align 8
  ret ptr %16
}